target datalayout = "e-m:e-p270:32:32-p271:32:32-p272:64:64-i64:64-i128:128-f80:128-n8:16:32:64-S128"
target triple = "x86_64-unknown-linux-gnu"

%"class.icu_75::StringMatcher" = type <{ %"class.icu_75::UnicodeFunctor", %"class.icu_75::UnicodeMatcher", %"class.icu_75::UnicodeReplacer", %"class.icu_75::UnicodeString", ptr, i32, i32, i32, [4 x i8] }>
%"class.icu_75::UnicodeFunctor" = type { %"class.icu_75::UObject" }
%"class.icu_75::UObject" = type { ptr }
%"class.icu_75::UnicodeMatcher" = type { ptr }
%"class.icu_75::UnicodeReplacer" = type { ptr }
%"class.icu_75::UnicodeString" = type { %"class.icu_75::Replaceable", %"union.icu_75::UnicodeString::StackBufferOrFields" }
%"class.icu_75::Replaceable" = type { %"class.icu_75::UObject" }
%"union.icu_75::UnicodeString::StackBufferOrFields" = type { %struct.anon.0, [32 x i8] }
%struct.anon.0 = type { i16, i32, i32, ptr }

; Function Attrs: mustprogress nounwind uwtable
define void @_ZN6icu_7513StringMatcherD2Ev(ptr noundef nonnull align 8 dereferenceable(108) %this) unnamed_addr #0 align 2 {
entry:
  %this.addr = alloca ptr, align 8
  store ptr %this, ptr %this.addr, align 8
  %this1 = load ptr, ptr %this.addr, align 8
  store ptr getelementptr inbounds ({ [16 x ptr], [8 x ptr], [7 x ptr] }, ptr @_ZTVN6icu_7513StringMatcherE, i32 0, i32 0, i32 2), ptr %this1, align 8
  %add.ptr = getelementptr inbounds i8, ptr %this1, i64 8
  store ptr getelementptr inbounds ({ [16 x ptr], [8 x ptr], [7 x ptr] }, ptr @_ZTVN6icu_7513StringMatcherE, i32 0, i32 1, i32 2), ptr %add.ptr, align 8
  %add.ptr2 = getelementptr inbounds i8, ptr %this1, i64 16
  store ptr getelementptr inbounds ({ [16 x ptr], [8 x ptr], [7 x ptr] }, ptr @_ZTVN6icu_7513StringMatcherE, i32 0, i32 2, i32 2), ptr %add.ptr2, align 8
  %pattern = getelementptr inbounds %"class.icu_75::StringMatcher", ptr %this1, i32 0, i32 3
  call void @_ZN6icu_7513UnicodeStringD1Ev(ptr noundef nonnull align 8 dereferenceable(64) %pattern) #9
  %0 = getelementptr inbounds i8, ptr %this1, i64 16
  call void @_ZN6icu_7515UnicodeReplacerD2Ev(ptr noundef nonnull align 8 dereferenceable(8) %0) #9
  %1 = getelementptr inbounds i8, ptr %this1, i64 8
  call void @_ZN6icu_7514UnicodeMatcherD2Ev(ptr noundef nonnull align 8 dereferenceable(8) %1) #9
  call void @_ZN6icu_7514UnicodeFunctorD2Ev(ptr noundef nonnull align 8 dereferenceable(8) %this1) #9
  ret void
}